; Function Attrs: mustprogress nofree norecurse nosync nounwind willreturn memory(argmem: readwrite) uwtable
define void @_ZN6LibRaw19process_Sony_0x0116EPhty(ptr noundef nonnull writeonly align 8 captures(none) dereferenceable(767680) %0, ptr noundef readonly captures(none) %1, i16 noundef zeroext %2, i64 noundef %3) local_unnamed_addr #5 align 2 {
  %5 = icmp eq i64 %3, 257
  %6 = icmp eq i64 %3, 262
  %or.cond = or i1 %5, %6
  %7 = add i64 %3, -269
  %8 = icmp ult i64 %7, 2
  %or.cond5 = or i1 %or.cond, %8
  %9 = icmp ugt i16 %2, 1
  %or.cond8 = and i1 %9, %or.cond5
  br i1 %or.cond8, label %13, label %10

10:                                               ; preds = %4
  %11 = icmp ugt i64 %3, 272
  %12 = icmp ugt i16 %2, 2
  %or.cond11 = and i1 %12, %11
  br i1 %or.cond11, label %13, label %21

13:                                               ; preds = %10, %4
  %.0 = phi i64 [ 1, %4 ], [ 2, %10 ]
  %14 = getelementptr inbounds nuw i8, ptr %1, i64 %.0
  %15 = load i8, ptr %14, align 1, !tbaa !101
  %16 = zext i8 %15 to i32
  %17 = add nsw i32 %16, -32
  %18 = sitofp i32 %17 to float
  %19 = fmul reassoc nsz arcp contract afn float %18, 0x3FE1C71C80000000
  %20 = getelementptr inbounds nuw i8, ptr %0, i64 4724
  store float %19, ptr %20, align 4, !tbaa !102
  br label %21

21:                                               ; preds = %10, %13
  ret void
}